; Function Attrs: mustprogress uwtable
define void @_ZN23FilterExpressionToolBar13filterClickedEv(ptr noundef nonnull align 8 dereferenceable(52) %0) #0 align 2 personality ptr @__gxx_personality_v0 {
  %2 = alloca %class.QString, align 8
  %3 = alloca %class.QVariant, align 8
  %4 = alloca %class.QString, align 8
  %5 = tail call noundef ptr @_ZNK7QObject6senderEv(ptr noundef nonnull align 8 dereferenceable(16) %0)
  %6 = tail call noundef ptr @_ZNK11QMetaObject4castEPK7QObject(ptr noundef nonnull align 8 dereferenceable(56) @_ZN7QAction16staticMetaObjectE, ptr noundef %5)
  %.not = icmp eq ptr %6, null
  br i1 %.not, label %_ZN7QStringD2Ev.exit14, label %7

7:                                                ; preds = %1
  call void @_ZNK7QAction4dataEv(ptr dead_on_unwind nonnull writable sret(%class.QVariant) align 8 %3, ptr noundef nonnull align 8 dereferenceable(16) %6)
  invoke void @_ZNK8QVariant8toStringEv(ptr dead_on_unwind nonnull writable sret(%class.QString) align 8 %2, ptr noundef nonnull align 8 dereferenceable(32) %3)
          to label %8 unwind label %31

8:                                                ; preds = %7
  call void @_ZN8QVariantD1Ev(ptr noundef nonnull align 8 dereferenceable(32) %3) #16
  %9 = invoke i32 @_ZN15QGuiApplication17keyboardModifiersEv()
          to label %10 unwind label %33

10:                                               ; preds = %8
  %11 = and i32 %9, 33554432
  %12 = icmp ne i32 %11, 0
  %13 = load ptr, ptr %2, align 8
  store ptr %13, ptr %4, align 8
  %14 = getelementptr inbounds i8, ptr %4, i64 8
  %15 = getelementptr inbounds i8, ptr %2, i64 8
  %16 = load ptr, ptr %15, align 8
  store ptr %16, ptr %14, align 8
  %17 = getelementptr inbounds i8, ptr %4, i64 16
  %18 = getelementptr inbounds i8, ptr %2, i64 16
  %19 = load i64, ptr %18, align 8
  store i64 %19, ptr %17, align 8
  %.not.i.i.i = icmp eq ptr %13, null
  br i1 %.not.i.i.i, label %_ZN7QStringC2ERKS_.exit, label %20

20:                                               ; preds = %10
  %21 = atomicrmw add ptr %13, i32 1 seq_cst, align 4
  br label %_ZN7QStringC2ERKS_.exit

_ZN7QStringC2ERKS_.exit:                          ; preds = %10, %20
  invoke void @_ZN23FilterExpressionToolBar14filterSelectedE7QStringb(ptr noundef nonnull align 8 dereferenceable(52) %0, ptr noundef nonnull %4, i1 noundef zeroext %12)
          to label %22 unwind label %35

22:                                               ; preds = %_ZN7QStringC2ERKS_.exit
  %23 = load ptr, ptr %4, align 8
  %.not.i.i.i10 = icmp eq ptr %23, null
  br i1 %.not.i.i.i10, label %_ZN7QStringD2Ev.exit, label %_ZN17QArrayDataPointerIDsE5derefEv.exit.i.i

_ZN17QArrayDataPointerIDsE5derefEv.exit.i.i:      ; preds = %22
  %24 = atomicrmw sub ptr %23, i32 1 seq_cst, align 4
  %.not.i.i = icmp eq i32 %24, 1
  br i1 %.not.i.i, label %25, label %_ZN7QStringD2Ev.exit

25:                                               ; preds = %_ZN17QArrayDataPointerIDsE5derefEv.exit.i.i
  %26 = load ptr, ptr %4, align 8
  call void @_ZN10QArrayData10deallocateEPS_xx(ptr noundef %26, i64 noundef 2, i64 noundef 8) #16
  br label %_ZN7QStringD2Ev.exit

_ZN7QStringD2Ev.exit:                             ; preds = %22, %_ZN17QArrayDataPointerIDsE5derefEv.exit.i.i, %25
  %27 = load ptr, ptr %2, align 8
  %.not.i.i.i11 = icmp eq ptr %27, null
  br i1 %.not.i.i.i11, label %_ZN7QStringD2Ev.exit14, label %_ZN17QArrayDataPointerIDsE5derefEv.exit.i.i12

_ZN17QArrayDataPointerIDsE5derefEv.exit.i.i12:    ; preds = %_ZN7QStringD2Ev.exit
  %28 = atomicrmw sub ptr %27, i32 1 seq_cst, align 4
  %.not.i.i13 = icmp eq i32 %28, 1
  br i1 %.not.i.i13, label %29, label %_ZN7QStringD2Ev.exit14

29:                                               ; preds = %_ZN17QArrayDataPointerIDsE5derefEv.exit.i.i12
  %30 = load ptr, ptr %2, align 8
  call void @_ZN10QArrayData10deallocateEPS_xx(ptr noundef %30, i64 noundef 2, i64 noundef 8) #16
  br label %_ZN7QStringD2Ev.exit14

_ZN7QStringD2Ev.exit14:                           ; preds = %29, %_ZN17QArrayDataPointerIDsE5derefEv.exit.i.i12, %_ZN7QStringD2Ev.exit, %1
  ret void

31:                                               ; preds = %7
  %32 = landingpad { ptr, i32 }
          cleanup
  call void @_ZN8QVariantD1Ev(ptr noundef nonnull align 8 dereferenceable(32) %3) #16
  br label %_ZN7QStringD2Ev.exit22

33:                                               ; preds = %8
  %34 = landingpad { ptr, i32 }
          cleanup
  br label %_ZN7QStringD2Ev.exit18

35:                                               ; preds = %_ZN7QStringC2ERKS_.exit
  %36 = landingpad { ptr, i32 }
          cleanup
  %37 = load ptr, ptr %4, align 8
  %.not.i.i.i15 = icmp eq ptr %37, null
  br i1 %.not.i.i.i15, label %_ZN7QStringD2Ev.exit18, label %_ZN17QArrayDataPointerIDsE5derefEv.exit.i.i16

_ZN17QArrayDataPointerIDsE5derefEv.exit.i.i16:    ; preds = %35
  %38 = atomicrmw sub ptr %37, i32 1 seq_cst, align 4
  %.not.i.i17 = icmp eq i32 %38, 1
  br i1 %.not.i.i17, label %39, label %_ZN7QStringD2Ev.exit18

39:                                               ; preds = %_ZN17QArrayDataPointerIDsE5derefEv.exit.i.i16
  %40 = load ptr, ptr %4, align 8
  call void @_ZN10QArrayData10deallocateEPS_xx(ptr noundef %40, i64 noundef 2, i64 noundef 8) #16
  br label %_ZN7QStringD2Ev.exit18

_ZN7QStringD2Ev.exit18:                           ; preds = %39, %_ZN17QArrayDataPointerIDsE5derefEv.exit.i.i16, %35, %33
  %.pn = phi { ptr, i32 } [ %34, %33 ], [ %36, %35 ], [ %36, %_ZN17QArrayDataPointerIDsE5derefEv.exit.i.i16 ], [ %36, %39 ]
  %41 = load ptr, ptr %2, align 8
  %.not.i.i.i19 = icmp eq ptr %41, null
  br i1 %.not.i.i.i19, label %_ZN7QStringD2Ev.exit22, label %_ZN17QArrayDataPointerIDsE5derefEv.exit.i.i20

_ZN17QArrayDataPointerIDsE5derefEv.exit.i.i20:    ; preds = %_ZN7QStringD2Ev.exit18
  %42 = atomicrmw sub ptr %41, i32 1 seq_cst, align 4
  %.not.i.i21 = icmp eq i32 %42, 1
  br i1 %.not.i.i21, label %43, label %_ZN7QStringD2Ev.exit22

43:                                               ; preds = %_ZN17QArrayDataPointerIDsE5derefEv.exit.i.i20
  %44 = load ptr, ptr %2, align 8
  call void @_ZN10QArrayData10deallocateEPS_xx(ptr noundef %44, i64 noundef 2, i64 noundef 8) #16
  br label %_ZN7QStringD2Ev.exit22

_ZN7QStringD2Ev.exit22:                           ; preds = %43, %_ZN17QArrayDataPointerIDsE5derefEv.exit.i.i20, %_ZN7QStringD2Ev.exit18, %31
  %.pn.pn = phi { ptr, i32 } [ %32, %31 ], [ %.pn, %_ZN7QStringD2Ev.exit18 ], [ %.pn, %_ZN17QArrayDataPointerIDsE5derefEv.exit.i.i20 ], [ %.pn, %43 ]
  resume { ptr, i32 } %.pn.pn
}